target datalayout = "e-m:e-p270:32:32-p271:32:32-p272:64:64-i64:64-i128:128-f80:128-n8:16:32:64-S128"
target triple = "x86_64-unknown-linux-gnu"

%struct.vfio_precopy_info = type { i32, i32, i64, i64 }
%struct.VFIODevice = type { %struct.anon, %struct.anon.0, %struct.anon.1, ptr, ptr, ptr, ptr, ptr, i32, i32, i8, i8, i8, i8, i32, ptr, i32, i32, i32, ptr, ptr, i32, i8, i8 }
%struct.anon = type { ptr, ptr }
%struct.anon.0 = type { ptr, ptr }
%struct.anon.1 = type { ptr, ptr }
%struct.VFIOMigration = type { ptr, ptr, %struct.Notifier, i32, i32, ptr, i64, i64, i64, i64, i8 }
%struct.Notifier = type { ptr, %struct.anon.2 }
%struct.anon.2 = type { ptr, ptr }
%struct.vfio_device_feature = type { i32, i32, [0 x i8] }
%struct.timeval = type { i64, i64 }
%struct.vfio_device_feature_mig_data_size = type { i64 }

@trace_events_enabled_count = external global i32, align 4
@message_with_timestamp = external global i8, align 1
@qemu_loglevel = external global i32, align 4
@.str.17 = private unnamed_addr constant [45 x i8] c"%s: Failed to allocate migration data buffer\00", align 1
@__const.vfio_query_precopy_size.precopy = private unnamed_addr constant %struct.vfio_precopy_info { i32 24, i32 0, i64 0, i64 0 }, align 8
@_TRACE_VFIO_SAVE_SETUP_DSTATE = external global i16, align 2
@.str.34 = private unnamed_addr constant [59 x i8] c"%d@%zu.%06zu:vfio_save_setup  (%s) data buffer size 0x%lx\0A\00", align 1
@.str.35 = private unnamed_addr constant [46 x i8] c"vfio_save_setup  (%s) data buffer size 0x%lx\0A\00", align 1

; Function Attrs: nounwind sspstrong uwtable
define internal zeroext i1 @qemu_loglevel_mask(i32 noundef %mask) #0 {
entry:
  %mask.addr = alloca i32, align 4
  store i32 %mask, ptr %mask.addr, align 4
  %0 = load i32, ptr @qemu_loglevel, align 4
  %1 = load i32, ptr %mask.addr, align 4
  %and = and i32 %0, %1
  %cmp = icmp ne i32 %and, 0
  ret i1 %cmp
}

; Function Attrs: nounwind sspstrong uwtable
define internal void @_nocheck__trace_vfio_save_setup(ptr noundef %name, i64 noundef %data_buffer_size) #0 {
entry:
  %name.addr = alloca ptr, align 8
  %data_buffer_size.addr = alloca i64, align 8
  %_now = alloca %struct.timeval, align 8
  store ptr %name, ptr %name.addr, align 8
  store i64 %data_buffer_size, ptr %data_buffer_size.addr, align 8
  %0 = load i32, ptr @trace_events_enabled_count, align 4
  %tobool = icmp ne i32 %0, 0
  %lnot = xor i1 %tobool, true
  %lnot1 = xor i1 %lnot, true
  %lnot.ext = zext i1 %lnot1 to i32
  %conv = sext i32 %lnot.ext to i64
  %tobool2 = icmp ne i64 %conv, 0
  br i1 %tobool2, label %land.lhs.true, label %if.end11

land.lhs.true:                                    ; preds = %entry
  %1 = load i16, ptr @_TRACE_VFIO_SAVE_SETUP_DSTATE, align 2
  %conv3 = zext i16 %1 to i32
  %tobool4 = icmp ne i32 %conv3, 0
  br i1 %tobool4, label %land.lhs.true5, label %if.end11

land.lhs.true5:                                   ; preds = %land.lhs.true
  %call = call zeroext i1 @qemu_loglevel_mask(i32 noundef 32768)
  br i1 %call, label %if.then, label %if.end11

if.then:                                          ; preds = %land.lhs.true5
  %2 = load i8, ptr @message_with_timestamp, align 1
  %tobool7 = trunc i8 %2 to i1
  br i1 %tobool7, label %if.then8, label %if.else

if.then8:                                         ; preds = %if.then
  %call9 = call i32 @gettimeofday(ptr noundef %_now, ptr noundef null) #9
  %call10 = call i32 @qemu_get_thread_id()
  %tv_sec = getelementptr inbounds %struct.timeval, ptr %_now, i32 0, i32 0
  %3 = load i64, ptr %tv_sec, align 8
  %tv_usec = getelementptr inbounds %struct.timeval, ptr %_now, i32 0, i32 1
  %4 = load i64, ptr %tv_usec, align 8
  %5 = load ptr, ptr %name.addr, align 8
  %6 = load i64, ptr %data_buffer_size.addr, align 8
  call void (ptr, ...) @qemu_log(ptr noundef @.str.34, i32 noundef %call10, i64 noundef %3, i64 noundef %4, ptr noundef %5, i64 noundef %6)
  br label %if.end

if.else:                                          ; preds = %if.then
  %7 = load ptr, ptr %name.addr, align 8
  %8 = load i64, ptr %data_buffer_size.addr, align 8
  call void (ptr, ...) @qemu_log(ptr noundef @.str.35, ptr noundef %7, i64 noundef %8)
  br label %if.end

if.end:                                           ; preds = %if.else, %if.then8
  br label %if.end11

if.end11:                                         ; preds = %if.end, %land.lhs.true5, %land.lhs.true, %entry
  ret void
}

; Function Attrs: nounwind sspstrong uwtable
define internal void @trace_vfio_save_setup(ptr noundef %name, i64 noundef %data_buffer_size) #0 {
entry:
  %name.addr = alloca ptr, align 8
  %data_buffer_size.addr = alloca i64, align 8
  store ptr %name, ptr %name.addr, align 8
  store i64 %data_buffer_size, ptr %data_buffer_size.addr, align 8
  %0 = load ptr, ptr %name.addr, align 8
  %1 = load i64, ptr %data_buffer_size.addr, align 8
  call void @_nocheck__trace_vfio_save_setup(ptr noundef %0, i64 noundef %1)
  ret void
}

; Function Attrs: nounwind sspstrong uwtable
define internal i32 @vfio_query_precopy_size(ptr noundef %migration) #0 {
entry:
  %retval = alloca i32, align 4
  %migration.addr = alloca ptr, align 8
  %precopy = alloca %struct.vfio_precopy_info, align 8
  store ptr %migration, ptr %migration.addr, align 8
  call void @llvm.memcpy.p0.p0.i64(ptr align 8 %precopy, ptr align 8 @__const.vfio_query_precopy_size.precopy, i64 24, i1 false)
  %0 = load ptr, ptr %migration.addr, align 8
  %precopy_init_size = getelementptr inbounds %struct.VFIOMigration, ptr %0, i32 0, i32 8
  store i64 0, ptr %precopy_init_size, align 8
  %1 = load ptr, ptr %migration.addr, align 8
  %precopy_dirty_size = getelementptr inbounds %struct.VFIOMigration, ptr %1, i32 0, i32 9
  store i64 0, ptr %precopy_dirty_size, align 8
  %2 = load ptr, ptr %migration.addr, align 8
  %data_fd = getelementptr inbounds %struct.VFIOMigration, ptr %2, i32 0, i32 4
  %3 = load i32, ptr %data_fd, align 4
  %call = call i32 (i32, i64, ...) @ioctl(i32 noundef %3, i64 noundef 15225, ptr noundef %precopy) #9
  %tobool = icmp ne i32 %call, 0
  br i1 %tobool, label %if.then, label %if.end

if.then:                                          ; preds = %entry
  %call1 = call ptr @__errno_location() #11
  %4 = load i32, ptr %call1, align 4
  %sub = sub i32 0, %4
  store i32 %sub, ptr %retval, align 4
  br label %return

if.end:                                           ; preds = %entry
  %initial_bytes = getelementptr inbounds %struct.vfio_precopy_info, ptr %precopy, i32 0, i32 2
  %5 = load i64, ptr %initial_bytes, align 8
  %6 = load ptr, ptr %migration.addr, align 8
  %precopy_init_size2 = getelementptr inbounds %struct.VFIOMigration, ptr %6, i32 0, i32 8
  store i64 %5, ptr %precopy_init_size2, align 8
  %dirty_bytes = getelementptr inbounds %struct.vfio_precopy_info, ptr %precopy, i32 0, i32 3
  %7 = load i64, ptr %dirty_bytes, align 8
  %8 = load ptr, ptr %migration.addr, align 8
  %precopy_dirty_size3 = getelementptr inbounds %struct.VFIOMigration, ptr %8, i32 0, i32 9
  store i64 %7, ptr %precopy_dirty_size3, align 8
  store i32 0, ptr %retval, align 4
  br label %return

return:                                           ; preds = %if.end, %if.then
  %9 = load i32, ptr %retval, align 4
  ret i32 %9
}

; Function Attrs: nounwind sspstrong uwtable
define internal zeroext i1 @vfio_precopy_supported(ptr noundef %vbasedev) #0 {
entry:
  %vbasedev.addr = alloca ptr, align 8
  %migration = alloca ptr, align 8
  store ptr %vbasedev, ptr %vbasedev.addr, align 8
  %0 = load ptr, ptr %vbasedev.addr, align 8
  %migration1 = getelementptr inbounds %struct.VFIODevice, ptr %0, i32 0, i32 19
  %1 = load ptr, ptr %migration1, align 8
  store ptr %1, ptr %migration, align 8
  %2 = load ptr, ptr %migration, align 8
  %mig_flags = getelementptr inbounds %struct.VFIOMigration, ptr %2, i32 0, i32 7
  %3 = load i64, ptr %mig_flags, align 8
  %and = and i64 %3, 4
  %tobool = icmp ne i64 %and, 0
  ret i1 %tobool
}

; Function Attrs: nounwind sspstrong uwtable
define internal i32 @vfio_query_stop_copy_size(ptr noundef %vbasedev, ptr noundef %stop_copy_size) #0 {
entry:
  %retval = alloca i32, align 4
  %vbasedev.addr = alloca ptr, align 8
  %stop_copy_size.addr = alloca ptr, align 8
  %buf = alloca [2 x i64], align 16
  %feature = alloca ptr, align 8
  %mig_data_size = alloca ptr, align 8
  store ptr %vbasedev, ptr %vbasedev.addr, align 8
  store ptr %stop_copy_size, ptr %stop_copy_size.addr, align 8
  call void @llvm.memset.p0.i64(ptr align 16 %buf, i8 0, i64 16, i1 false)
  %arraydecay = getelementptr inbounds [2 x i64], ptr %buf, i64 0, i64 0
  store ptr %arraydecay, ptr %feature, align 8
  %0 = load ptr, ptr %feature, align 8
  %data = getelementptr inbounds %struct.vfio_device_feature, ptr %0, i32 0, i32 2
  %arraydecay1 = getelementptr inbounds [0 x i8], ptr %data, i64 0, i64 0
  store ptr %arraydecay1, ptr %mig_data_size, align 8
  %1 = load ptr, ptr %feature, align 8
  %argsz = getelementptr inbounds %struct.vfio_device_feature, ptr %1, i32 0, i32 0
  store i32 16, ptr %argsz, align 4
  %2 = load ptr, ptr %feature, align 8
  %flags = getelementptr inbounds %struct.vfio_device_feature, ptr %2, i32 0, i32 1
  store i32 65545, ptr %flags, align 4
  %3 = load ptr, ptr %vbasedev.addr, align 8
  %fd = getelementptr inbounds %struct.VFIODevice, ptr %3, i32 0, i32 8
  %4 = load i32, ptr %fd, align 8
  %5 = load ptr, ptr %feature, align 8
  %call = call i32 (i32, i64, ...) @ioctl(i32 noundef %4, i64 noundef 15221, ptr noundef %5) #9
  %tobool = icmp ne i32 %call, 0
  br i1 %tobool, label %if.then, label %if.end

if.then:                                          ; preds = %entry
  %call2 = call ptr @__errno_location() #11
  %6 = load i32, ptr %call2, align 4
  %sub = sub i32 0, %6
  store i32 %sub, ptr %retval, align 4
  br label %return

if.end:                                           ; preds = %entry
  %7 = load ptr, ptr %mig_data_size, align 8
  %stop_copy_length = getelementptr inbounds %struct.vfio_device_feature_mig_data_size, ptr %7, i32 0, i32 0
  %8 = load i64, ptr %stop_copy_length, align 8
  %9 = load ptr, ptr %stop_copy_size.addr, align 8
  store i64 %8, ptr %9, align 8
  store i32 0, ptr %retval, align 4
  br label %return

return:                                           ; preds = %if.end, %if.then
  %10 = load i32, ptr %retval, align 4
  ret i32 %10
}

; Function Attrs: nounwind sspstrong uwtable
define internal i32 @vfio_save_setup(ptr noundef %f, ptr noundef %opaque) #0 {
entry:
  %retval = alloca i32, align 4
  %f.addr = alloca ptr, align 8
  %opaque.addr = alloca ptr, align 8
  %vbasedev = alloca ptr, align 8
  %migration = alloca ptr, align 8
  %stop_copy_size = alloca i64, align 8
  %_a24 = alloca i64, align 8
  %_b25 = alloca i64, align 8
  %tmp = alloca i64, align 8
  %ret = alloca i32, align 4
  store ptr %f, ptr %f.addr, align 8
  store ptr %opaque, ptr %opaque.addr, align 8
  %0 = load ptr, ptr %opaque.addr, align 8
  store ptr %0, ptr %vbasedev, align 8
  %1 = load ptr, ptr %vbasedev, align 8
  %migration1 = getelementptr inbounds %struct.VFIODevice, ptr %1, i32 0, i32 19
  %2 = load ptr, ptr %migration1, align 8
  store ptr %2, ptr %migration, align 8
  store i64 1048576, ptr %stop_copy_size, align 8
  %3 = load ptr, ptr %f.addr, align 8
  call void @qemu_put_be64(ptr noundef %3, i64 noundef -284164093)
  %4 = load ptr, ptr %vbasedev, align 8
  %call = call i32 @vfio_query_stop_copy_size(ptr noundef %4, ptr noundef %stop_copy_size)
  store i64 1048576, ptr %_a24, align 8
  %5 = load i64, ptr %stop_copy_size, align 8
  store i64 %5, ptr %_b25, align 8
  %6 = load i64, ptr %_a24, align 8
  %7 = load i64, ptr %_b25, align 8
  %cmp = icmp ult i64 %6, %7
  br i1 %cmp, label %cond.true, label %cond.false

cond.true:                                        ; preds = %entry
  %8 = load i64, ptr %_a24, align 8
  br label %cond.end

cond.false:                                       ; preds = %entry
  %9 = load i64, ptr %_b25, align 8
  br label %cond.end

cond.end:                                         ; preds = %cond.false, %cond.true
  %cond = phi i64 [ %8, %cond.true ], [ %9, %cond.false ]
  store i64 %cond, ptr %tmp, align 8
  %10 = load i64, ptr %tmp, align 8
  %11 = load ptr, ptr %migration, align 8
  %data_buffer_size = getelementptr inbounds %struct.VFIOMigration, ptr %11, i32 0, i32 6
  store i64 %10, ptr %data_buffer_size, align 8
  %12 = load ptr, ptr %migration, align 8
  %data_buffer_size2 = getelementptr inbounds %struct.VFIOMigration, ptr %12, i32 0, i32 6
  %13 = load i64, ptr %data_buffer_size2, align 8
  %call3 = call noalias ptr @g_try_malloc0(i64 noundef %13) #12
  %14 = load ptr, ptr %migration, align 8
  %data_buffer = getelementptr inbounds %struct.VFIOMigration, ptr %14, i32 0, i32 5
  store ptr %call3, ptr %data_buffer, align 8
  %15 = load ptr, ptr %migration, align 8
  %data_buffer4 = getelementptr inbounds %struct.VFIOMigration, ptr %15, i32 0, i32 5
  %16 = load ptr, ptr %data_buffer4, align 8
  %tobool = icmp ne ptr %16, null
  br i1 %tobool, label %if.end, label %if.then

if.then:                                          ; preds = %cond.end
  %17 = load ptr, ptr %vbasedev, align 8
  %name = getelementptr inbounds %struct.VFIODevice, ptr %17, i32 0, i32 6
  %18 = load ptr, ptr %name, align 8
  call void (ptr, ...) @error_report(ptr noundef @.str.17, ptr noundef %18)
  store i32 -12, ptr %retval, align 4
  br label %return

if.end:                                           ; preds = %cond.end
  %19 = load ptr, ptr %vbasedev, align 8
  %call5 = call zeroext i1 @vfio_precopy_supported(ptr noundef %19)
  br i1 %call5, label %if.then6, label %if.end13

if.then6:                                         ; preds = %if.end
  %20 = load ptr, ptr %migration, align 8
  %device_state = getelementptr inbounds %struct.VFIOMigration, ptr %20, i32 0, i32 3
  %21 = load i32, ptr %device_state, align 8
  switch i32 %21, label %sw.default [
    i32 2, label %sw.bb
    i32 1, label %sw.bb12
  ]

sw.bb:                                            ; preds = %if.then6
  %22 = load ptr, ptr %vbasedev, align 8
  %call7 = call i32 @vfio_migration_set_state(ptr noundef %22, i32 noundef 6, i32 noundef 2)
  store i32 %call7, ptr %ret, align 4
  %23 = load i32, ptr %ret, align 4
  %tobool8 = icmp ne i32 %23, 0
  br i1 %tobool8, label %if.then9, label %if.end10

if.then9:                                         ; preds = %sw.bb
  %24 = load i32, ptr %ret, align 4
  store i32 %24, ptr %retval, align 4
  br label %return

if.end10:                                         ; preds = %sw.bb
  %25 = load ptr, ptr %migration, align 8
  %call11 = call i32 @vfio_query_precopy_size(ptr noundef %25)
  br label %sw.epilog

sw.bb12:                                          ; preds = %if.then6
  br label %sw.epilog

sw.default:                                       ; preds = %if.then6
  store i32 -22, ptr %retval, align 4
  br label %return

sw.epilog:                                        ; preds = %sw.bb12, %if.end10
  br label %if.end13

if.end13:                                         ; preds = %sw.epilog, %if.end
  %26 = load ptr, ptr %vbasedev, align 8
  %name14 = getelementptr inbounds %struct.VFIODevice, ptr %26, i32 0, i32 6
  %27 = load ptr, ptr %name14, align 8
  %28 = load ptr, ptr %migration, align 8
  %data_buffer_size15 = getelementptr inbounds %struct.VFIOMigration, ptr %28, i32 0, i32 6
  %29 = load i64, ptr %data_buffer_size15, align 8
  call void @trace_vfio_save_setup(ptr noundef %27, i64 noundef %29)
  %30 = load ptr, ptr %f.addr, align 8
  call void @qemu_put_be64(ptr noundef %30, i64 noundef -284164095)
  %31 = load ptr, ptr %f.addr, align 8
  %call16 = call i32 @qemu_file_get_error(ptr noundef %31)
  store i32 %call16, ptr %retval, align 4
  br label %return

return:                                           ; preds = %if.end13, %sw.default, %if.then9, %if.then
  %32 = load i32, ptr %retval, align 4
  ret i32 %32
}