; Function Attrs: nounwind sspstrong uwtable
define internal i32 @vfio_save_setup(ptr noundef %f, ptr noundef readonly captures(none) %opaque) #2 {
entry:
  %_now.i.i = alloca %struct.timeval, align 8
  %precopy.i = alloca %struct.vfio_precopy_info, align 8
  %buf.i = alloca [2 x i64], align 16
  %migration1 = getelementptr inbounds nuw i8, ptr %opaque, i64 128
  %0 = load ptr, ptr %migration1, align 8
  tail call void @qemu_put_be64(ptr noundef %f, i64 noundef -284164093) #16
  %1 = getelementptr i8, ptr %opaque, i64 88
  %opaque.val17 = load i32, ptr %1, align 8
  call void @llvm.lifetime.start.p0(i64 16, ptr nonnull %buf.i)
  call void @llvm.memset.p0.i64(ptr noundef nonnull align 16 dereferenceable(16) %buf.i, i8 0, i64 16, i1 false)
  store i32 16, ptr %buf.i, align 16
  %flags.i = getelementptr inbounds nuw i8, ptr %buf.i, i64 4
  store i32 65545, ptr %flags.i, align 4
  %call.i = call i32 (i32, i64, ...) @ioctl(i32 noundef %opaque.val17, i64 noundef 15221, ptr noundef nonnull %buf.i) #16
  %tobool.not.i = icmp eq i32 %call.i, 0
  %data.i = getelementptr inbounds nuw i8, ptr %buf.i, i64 8
  %2 = load i64, ptr %data.i, align 8
  call void @llvm.lifetime.end.p0(i64 16, ptr nonnull %buf.i)
  %3 = call i64 @llvm.umin.i64(i64 %2, i64 1048576)
  %cond = select i1 %tobool.not.i, i64 %3, i64 1048576
  %data_buffer_size = getelementptr inbounds nuw i8, ptr %0, i64 56
  store i64 %cond, ptr %data_buffer_size, align 8
  %call3 = call noalias ptr @g_try_malloc0(i64 noundef %cond) #19
  %data_buffer = getelementptr inbounds nuw i8, ptr %0, i64 48
  store ptr %call3, ptr %data_buffer, align 8
  %tobool.not = icmp eq ptr %call3, null
  br i1 %tobool.not, label %if.then, label %if.end

if.then:                                          ; preds = %entry
  %name = getelementptr inbounds nuw i8, ptr %opaque, i64 72
  %4 = load ptr, ptr %name, align 8
  call void (ptr, ...) @error_report(ptr noundef nonnull @.str.17, ptr noundef %4) #16
  br label %return

if.end:                                           ; preds = %entry
  %opaque.val = load ptr, ptr %migration1, align 8
  %5 = getelementptr i8, ptr %opaque.val, i64 64
  %opaque.val.val = load i64, ptr %5, align 8
  %and.i = and i64 %opaque.val.val, 4
  %tobool.i.not = icmp eq i64 %and.i, 0
  br i1 %tobool.i.not, label %if.end13, label %if.then6

if.then6:                                         ; preds = %if.end
  %device_state = getelementptr inbounds nuw i8, ptr %0, i64 40
  %6 = load i32, ptr %device_state, align 8
  switch i32 %6, label %return [
    i32 2, label %sw.bb
    i32 1, label %if.end13
  ]

sw.bb:                                            ; preds = %if.then6
  %call7 = call fastcc i32 @vfio_migration_set_state(ptr noundef nonnull %opaque, i32 noundef 6, i32 noundef 2)
  %tobool8.not = icmp eq i32 %call7, 0
  br i1 %tobool8.not, label %if.end10, label %return

if.end10:                                         ; preds = %sw.bb
  call void @llvm.lifetime.start.p0(i64 24, ptr nonnull %precopy.i)
  call void @llvm.memcpy.p0.p0.i64(ptr noundef nonnull align 8 dereferenceable(24) %precopy.i, ptr noundef nonnull align 8 dereferenceable(24) @__const.vfio_query_precopy_size.precopy, i64 24, i1 false)
  %precopy_init_size.i = getelementptr inbounds nuw i8, ptr %0, i64 72
  %data_fd.i = getelementptr inbounds nuw i8, ptr %0, i64 44
  call void @llvm.memset.p0.i64(ptr noundef nonnull align 8 dereferenceable(16) %precopy_init_size.i, i8 0, i64 16, i1 false)
  %7 = load i32, ptr %data_fd.i, align 4
  %call.i18 = call i32 (i32, i64, ...) @ioctl(i32 noundef %7, i64 noundef 15225, ptr noundef nonnull %precopy.i) #16
  %tobool.not.i19 = icmp eq i32 %call.i18, 0
  br i1 %tobool.not.i19, label %if.end.i23, label %vfio_query_precopy_size.exit

if.end.i23:                                       ; preds = %if.end10
  %precopy_dirty_size.i = getelementptr inbounds nuw i8, ptr %0, i64 80
  %initial_bytes.i = getelementptr inbounds nuw i8, ptr %precopy.i, i64 8
  %8 = load i64, ptr %initial_bytes.i, align 8
  store i64 %8, ptr %precopy_init_size.i, align 8
  %dirty_bytes.i = getelementptr inbounds nuw i8, ptr %precopy.i, i64 16
  %9 = load i64, ptr %dirty_bytes.i, align 8
  store i64 %9, ptr %precopy_dirty_size.i, align 8
  br label %vfio_query_precopy_size.exit

vfio_query_precopy_size.exit:                     ; preds = %if.end10, %if.end.i23
  call void @llvm.lifetime.end.p0(i64 24, ptr nonnull %precopy.i)
  br label %if.end13

if.end13:                                         ; preds = %vfio_query_precopy_size.exit, %if.then6, %if.end
  %name14 = getelementptr inbounds nuw i8, ptr %opaque, i64 72
  %10 = load ptr, ptr %name14, align 8
  %11 = load i64, ptr %data_buffer_size, align 8
  call void @llvm.lifetime.start.p0(i64 16, ptr nonnull %_now.i.i)
  %12 = load i32, ptr @trace_events_enabled_count, align 4
  %tobool.i.i = icmp ne i32 %12, 0
  %13 = load i16, ptr @_TRACE_VFIO_SAVE_SETUP_DSTATE, align 2
  %tobool4.i.i = icmp ne i16 %13, 0
  %or.cond.i.i = select i1 %tobool.i.i, i1 %tobool4.i.i, i1 false
  br i1 %or.cond.i.i, label %land.lhs.true5.i.i, label %trace_vfio_save_setup.exit

land.lhs.true5.i.i:                               ; preds = %if.end13
  %14 = load i32, ptr @qemu_loglevel, align 4
  %and.i.i.i = and i32 %14, 32768
  %cmp.i.not.i.i = icmp eq i32 %and.i.i.i, 0
  br i1 %cmp.i.not.i.i, label %trace_vfio_save_setup.exit, label %if.then.i.i

if.then.i.i:                                      ; preds = %land.lhs.true5.i.i
  %15 = load i8, ptr @message_with_timestamp, align 1
  %tobool7.i.i = trunc i8 %15 to i1
  br i1 %tobool7.i.i, label %if.then8.i.i, label %if.else.i.i

if.then8.i.i:                                     ; preds = %if.then.i.i
  %call9.i.i = call i32 @gettimeofday(ptr noundef nonnull %_now.i.i, ptr noundef null) #16
  %call10.i.i = call i32 @qemu_get_thread_id() #16
  %16 = load i64, ptr %_now.i.i, align 8
  %tv_usec.i.i = getelementptr inbounds nuw i8, ptr %_now.i.i, i64 8
  %17 = load i64, ptr %tv_usec.i.i, align 8
  call void (ptr, ...) @qemu_log(ptr noundef nonnull @.str.34, i32 noundef %call10.i.i, i64 noundef %16, i64 noundef %17, ptr noundef %10, i64 noundef %11) #16
  br label %trace_vfio_save_setup.exit

if.else.i.i:                                      ; preds = %if.then.i.i
  call void (ptr, ...) @qemu_log(ptr noundef nonnull @.str.35, ptr noundef %10, i64 noundef %11) #16
  br label %trace_vfio_save_setup.exit

trace_vfio_save_setup.exit:                       ; preds = %if.end13, %land.lhs.true5.i.i, %if.then8.i.i, %if.else.i.i
  call void @llvm.lifetime.end.p0(i64 16, ptr nonnull %_now.i.i)
  call void @qemu_put_be64(ptr noundef %f, i64 noundef -284164095) #16
  %call16 = call i32 @qemu_file_get_error(ptr noundef %f) #16
  br label %return

return:                                           ; preds = %if.then6, %sw.bb, %trace_vfio_save_setup.exit, %if.then
  %retval.0 = phi i32 [ %call16, %trace_vfio_save_setup.exit ], [ -12, %if.then ], [ %call7, %sw.bb ], [ -22, %if.then6 ]
  ret i32 %retval.0
}